; Function Attrs: mustprogress nounwind uwtable
define hidden noundef zeroext i1 @_ZN34ShenandoahLoadReferenceBarrierNode13needs_barrierEP8PhaseGVNP4Node(ptr noundef nonnull align 8 dereferenceable(64) %0, ptr noundef %1, ptr noundef %2) local_unnamed_addr #0 align 2 {
  %4 = alloca %class.Unique_Node_List, align 8
  %5 = tail call align 8 ptr @llvm.threadlocal.address.p0(ptr align 8 @_ZN6Thread12_thr_currentE)
  %6 = load ptr, ptr %5, align 8
  %7 = getelementptr inbounds i8, ptr %6, i64 800
  %8 = load ptr, ptr %7, align 8
  store ptr %8, ptr %4, align 8
  %9 = getelementptr inbounds i8, ptr %4, i64 8
  store i32 4, ptr %9, align 8
  %10 = getelementptr inbounds i8, ptr %8, i64 40
  %11 = load ptr, ptr %10, align 8
  %12 = getelementptr inbounds i8, ptr %8, i64 32
  %13 = load ptr, ptr %12, align 8
  %14 = ptrtoint ptr %11 to i64
  %15 = ptrtoint ptr %13 to i64
  %16 = sub i64 %14, %15
  %.not.i.i.i.i.i = icmp ult i64 %16, 32
  br i1 %.not.i.i.i.i.i, label %19, label %17

17:                                               ; preds = %3
  %18 = getelementptr inbounds i8, ptr %13, i64 32
  store ptr %18, ptr %12, align 8
  br label %_ZN16Unique_Node_ListC2Ev.exit

19:                                               ; preds = %3
  %20 = tail call noundef ptr @_ZN5Arena4growEmN17AllocFailStrategy13AllocFailEnumE(ptr noundef nonnull align 8 dereferenceable(48) %8, i64 noundef 32, i32 noundef 0) #10
  br label %_ZN16Unique_Node_ListC2Ev.exit

_ZN16Unique_Node_ListC2Ev.exit:                   ; preds = %17, %19
  %.0.i.i.i.i.i = phi ptr [ %13, %17 ], [ %20, %19 ]
  %21 = getelementptr inbounds i8, ptr %4, i64 16
  store ptr %.0.i.i.i.i.i, ptr %21, align 8
  tail call void @llvm.memset.p0.i64(ptr noundef nonnull align 1 dereferenceable(32) %.0.i.i.i.i.i, i8 0, i64 32, i1 false)
  %22 = getelementptr inbounds i8, ptr %4, i64 24
  store i32 0, ptr %22, align 8
  %23 = getelementptr inbounds i8, ptr %4, i64 32
  call void @_ZN9VectorSetC1Ev(ptr noundef nonnull align 8 dereferenceable(32) %23) #10
  %24 = getelementptr inbounds i8, ptr %4, i64 64
  store i32 0, ptr %24, align 8
  %25 = call noundef zeroext i1 @_ZN34ShenandoahLoadReferenceBarrierNode18needs_barrier_implEP8PhaseGVNP4NodeR16Unique_Node_List(ptr noundef nonnull align 8 dereferenceable(64) %0, ptr noundef %1, ptr noundef %2, ptr noundef nonnull align 8 dereferenceable(68) %4)
  ret i1 %25
}